target datalayout = "e-m:e-p270:32:32-p271:32:32-p272:64:64-i64:64-i128:128-f80:128-n8:16:32:64-S128"
target triple = "x86_64-unknown-linux-gnu"

%"class.hermes::parser::detail::JSParserImpl" = type { ptr, ptr, %"class.hermes::parser::JSLexer", ptr, i32, ptr, i32, i8, i8, i8, %"class.llvh::SmallVector.15", i32, i8, i8, ptr, ptr, ptr, ptr, ptr, ptr, ptr, ptr, ptr, ptr, ptr, ptr, ptr, ptr, ptr, ptr, ptr, ptr, ptr, ptr, ptr, ptr, ptr, ptr, ptr, ptr, ptr, ptr, ptr, ptr, ptr, ptr, ptr, ptr, ptr, ptr, ptr, ptr, ptr, ptr, ptr, ptr, ptr, ptr, ptr, ptr, ptr, ptr, ptr, ptr, ptr, ptr, ptr, ptr, ptr, ptr, ptr, ptr, ptr, ptr, ptr, ptr, ptr, ptr, ptr, ptr, ptr, ptr, ptr, ptr, ptr, [122 x ptr] }
%"class.hermes::parser::JSLexer" = type { ptr, ptr, i32, %"class.std::unique_ptr.2", ptr, ptr, i8, i8, i8, i8, [4 x i8], %"class.hermes::parser::Token", %"class.llvh::SMLoc", ptr, ptr, ptr, i8, %"class.llvh::SmallString", %"class.llvh::SmallString", [46 x ptr], %"class.std::vector", %"class.std::vector.10" }
%"class.std::unique_ptr.2" = type { %"struct.std::__uniq_ptr_data.3" }
%"struct.std::__uniq_ptr_data.3" = type { %"class.std::__uniq_ptr_impl.4" }
%"class.std::__uniq_ptr_impl.4" = type { %"class.std::tuple.5" }
%"class.std::tuple.5" = type { %"struct.std::_Tuple_impl.6" }
%"struct.std::_Tuple_impl.6" = type { %"struct.std::_Head_base.9" }
%"struct.std::_Head_base.9" = type { ptr }
%"class.hermes::parser::Token" = type <{ i32, [4 x i8], %"class.llvh::SMRange", double, ptr, ptr, ptr, ptr, i8, [7 x i8] }>
%"class.llvh::SMRange" = type { %"class.llvh::SMLoc", %"class.llvh::SMLoc" }
%"class.llvh::SMLoc" = type { ptr }
%"class.llvh::SmallString" = type { %"class.llvh::SmallVector" }
%"class.llvh::SmallVector" = type { %"class.llvh::SmallVectorImpl", %"struct.llvh::SmallVectorStorage" }
%"class.llvh::SmallVectorImpl" = type { %"class.llvh::SmallVectorTemplateBase" }
%"class.llvh::SmallVectorTemplateBase" = type { %"class.llvh::SmallVectorTemplateCommon" }
%"class.llvh::SmallVectorTemplateCommon" = type { %"class.llvh::SmallVectorBase" }
%"class.llvh::SmallVectorBase" = type { ptr, i32, i32 }
%"struct.llvh::SmallVectorStorage" = type { [256 x %"struct.llvh::AlignedCharArrayUnion"] }
%"struct.llvh::AlignedCharArrayUnion" = type { %"struct.llvh::AlignedCharArray" }
%"struct.llvh::AlignedCharArray" = type { [1 x i8] }
%"class.std::vector" = type { %"struct.std::_Vector_base" }
%"struct.std::_Vector_base" = type { %"struct.std::_Vector_base<hermes::parser::StoredComment, std::allocator<hermes::parser::StoredComment>>::_Vector_impl" }
%"struct.std::_Vector_base<hermes::parser::StoredComment, std::allocator<hermes::parser::StoredComment>>::_Vector_impl" = type { %"struct.std::_Vector_base<hermes::parser::StoredComment, std::allocator<hermes::parser::StoredComment>>::_Vector_impl_data" }
%"struct.std::_Vector_base<hermes::parser::StoredComment, std::allocator<hermes::parser::StoredComment>>::_Vector_impl_data" = type { ptr, ptr, ptr }
%"class.std::vector.10" = type { %"struct.std::_Vector_base.11" }
%"struct.std::_Vector_base.11" = type { %"struct.std::_Vector_base<hermes::parser::StoredToken, std::allocator<hermes::parser::StoredToken>>::_Vector_impl" }
%"struct.std::_Vector_base<hermes::parser::StoredToken, std::allocator<hermes::parser::StoredToken>>::_Vector_impl" = type { %"struct.std::_Vector_base<hermes::parser::StoredToken, std::allocator<hermes::parser::StoredToken>>::_Vector_impl_data" }
%"struct.std::_Vector_base<hermes::parser::StoredToken, std::allocator<hermes::parser::StoredToken>>::_Vector_impl_data" = type { ptr, ptr, ptr }
%"class.llvh::SmallVector.15" = type { %"class.llvh::SmallVectorImpl.16", %"struct.llvh::SmallVectorStorage.19" }
%"class.llvh::SmallVectorImpl.16" = type { %"class.llvh::SmallVectorTemplateBase.17" }
%"class.llvh::SmallVectorTemplateBase.17" = type { %"class.llvh::SmallVectorTemplateCommon.18" }
%"class.llvh::SmallVectorTemplateCommon.18" = type { %"class.llvh::SmallVectorBase" }
%"struct.llvh::SmallVectorStorage.19" = type { [1 x %"struct.llvh::AlignedCharArrayUnion.20"] }
%"struct.llvh::AlignedCharArrayUnion.20" = type { %"struct.llvh::AlignedCharArray.21" }
%"struct.llvh::AlignedCharArray.21" = type { [8 x i8] }
%"class.llvh::Twine" = type <{ %"union.llvh::Twine::Child", %"union.llvh::Twine::Child", i8, i8, [6 x i8] }>
%"union.llvh::Twine::Child" = type { ptr }

@.str.77 = private unnamed_addr constant [13 x i8] c"';' expected\00", align 1

; Function Attrs: mustprogress nounwind uwtable
define linkonce_odr hidden void @_ZN6hermes18SourceErrorManager5errorEN4llvh5SMLocERKNS1_5TwineENS_9SubsystemE(ptr noundef nonnull align 8 dereferenceable(464) %this, ptr %loc.coerce, ptr noundef nonnull align 8 dereferenceable(18) %msg, i32 noundef %subsystem) #0 comdat align 2 {
entry:
  %loc = alloca %"class.llvh::SMLoc", align 8
  %this.addr = alloca ptr, align 8
  %msg.addr = alloca ptr, align 8
  %subsystem.addr = alloca i32, align 4
  %agg.tmp = alloca %"class.llvh::SMLoc", align 8
  %coerce.dive = getelementptr inbounds %"class.llvh::SMLoc", ptr %loc, i32 0, i32 0
  store ptr %loc.coerce, ptr %coerce.dive, align 8
  store ptr %this, ptr %this.addr, align 8
  store ptr %msg, ptr %msg.addr, align 8
  store i32 %subsystem, ptr %subsystem.addr, align 4
  %this1 = load ptr, ptr %this.addr, align 8
  call void @llvm.memcpy.p0.p0.i64(ptr align 8 %agg.tmp, ptr align 8 %loc, i64 8, i1 false)
  %0 = load ptr, ptr %msg.addr, align 8
  %1 = load i32, ptr %subsystem.addr, align 4
  %coerce.dive2 = getelementptr inbounds %"class.llvh::SMLoc", ptr %agg.tmp, i32 0, i32 0
  %2 = load ptr, ptr %coerce.dive2, align 8
  call void @_ZN6hermes18SourceErrorManager7messageENS0_8DiagKindEN4llvh5SMLocERKNS2_5TwineENS_9SubsystemE(ptr noundef nonnull align 8 dereferenceable(464) %this1, i32 noundef 0, ptr %2, ptr noundef nonnull align 8 dereferenceable(18) %0, i32 noundef %1)
  ret void
}

; Function Attrs: mustprogress nounwind uwtable
define linkonce_odr hidden { ptr, ptr } @_ZNK6hermes6parser5Token14getSourceRangeEv(ptr noundef nonnull align 8 dereferenceable(65) %this) #0 comdat align 2 {
entry:
  %retval = alloca %"class.llvh::SMRange", align 8
  %this.addr = alloca ptr, align 8
  store ptr %this, ptr %this.addr, align 8
  %this1 = load ptr, ptr %this.addr, align 8
  %range_ = getelementptr inbounds %"class.hermes::parser::Token", ptr %this1, i32 0, i32 2
  call void @llvm.memcpy.p0.p0.i64(ptr align 8 %retval, ptr align 8 %range_, i64 16, i1 false)
  %0 = load { ptr, ptr }, ptr %retval, align 8
  ret { ptr, ptr } %0
}

; Function Attrs: mustprogress nounwind uwtable
define linkonce_odr hidden void @_ZN6hermes6parser6detail12JSParserImpl5errorEN4llvh5SMLocERKNS3_5TwineE(ptr noundef nonnull align 8 dereferenceable(2752) %this, ptr %loc.coerce, ptr noundef nonnull align 8 dereferenceable(18) %message) #0 comdat align 2 {
entry:
  %loc = alloca %"class.llvh::SMLoc", align 8
  %this.addr = alloca ptr, align 8
  %message.addr = alloca ptr, align 8
  %agg.tmp = alloca %"class.llvh::SMLoc", align 8
  %coerce.dive = getelementptr inbounds %"class.llvh::SMLoc", ptr %loc, i32 0, i32 0
  store ptr %loc.coerce, ptr %coerce.dive, align 8
  store ptr %this, ptr %this.addr, align 8
  store ptr %message, ptr %message.addr, align 8
  %this1 = load ptr, ptr %this.addr, align 8
  %sm_ = getelementptr inbounds %"class.hermes::parser::detail::JSParserImpl", ptr %this1, i32 0, i32 1
  %0 = load ptr, ptr %sm_, align 8
  call void @llvm.memcpy.p0.p0.i64(ptr align 8 %agg.tmp, ptr align 8 %loc, i64 8, i1 false)
  %1 = load ptr, ptr %message.addr, align 8
  %coerce.dive2 = getelementptr inbounds %"class.llvh::SMLoc", ptr %agg.tmp, i32 0, i32 0
  %2 = load ptr, ptr %coerce.dive2, align 8
  call void @_ZN6hermes18SourceErrorManager5errorEN4llvh5SMLocERKNS1_5TwineENS_9SubsystemE(ptr noundef nonnull align 8 dereferenceable(464) %0, ptr %2, ptr noundef nonnull align 8 dereferenceable(18) %1, i32 noundef 2)
  ret void
}

; Function Attrs: mustprogress nounwind uwtable
define linkonce_odr hidden void @_ZN4llvh5TwineC2EPKc(ptr noundef nonnull align 8 dereferenceable(18) %this, ptr noundef %Str) unnamed_addr #0 comdat align 2 {
entry:
  %this.addr = alloca ptr, align 8
  %Str.addr = alloca ptr, align 8
  store ptr %this, ptr %this.addr, align 8
  store ptr %Str, ptr %Str.addr, align 8
  %this1 = load ptr, ptr %this.addr, align 8
  %LHSKind = getelementptr inbounds %"class.llvh::Twine", ptr %this1, i32 0, i32 2
  store i8 1, ptr %LHSKind, align 8
  %RHSKind = getelementptr inbounds %"class.llvh::Twine", ptr %this1, i32 0, i32 3
  store i8 1, ptr %RHSKind, align 1
  %0 = load ptr, ptr %Str.addr, align 8
  %arrayidx = getelementptr inbounds i8, ptr %0, i64 0
  %1 = load i8, ptr %arrayidx, align 1
  %conv = sext i8 %1 to i32
  %cmp = icmp ne i32 %conv, 0
  br i1 %cmp, label %if.then, label %if.else

if.then:                                          ; preds = %entry
  %2 = load ptr, ptr %Str.addr, align 8
  %LHS2 = getelementptr inbounds %"class.llvh::Twine", ptr %this1, i32 0, i32 0
  store ptr %2, ptr %LHS2, align 8
  %LHSKind3 = getelementptr inbounds %"class.llvh::Twine", ptr %this1, i32 0, i32 2
  store i8 3, ptr %LHSKind3, align 8
  br label %if.end

if.else:                                          ; preds = %entry
  %LHSKind4 = getelementptr inbounds %"class.llvh::Twine", ptr %this1, i32 0, i32 2
  store i8 1, ptr %LHSKind4, align 8
  br label %if.end

if.end:                                           ; preds = %if.else, %if.then
  ret void
}

; Function Attrs: mustprogress nounwind uwtable
define linkonce_odr hidden ptr @_ZNK6hermes6parser5Token11getStartLocEv(ptr noundef nonnull align 8 dereferenceable(65) %this) #0 comdat align 2 {
entry:
  %retval = alloca %"class.llvh::SMLoc", align 8
  %this.addr = alloca ptr, align 8
  store ptr %this, ptr %this.addr, align 8
  %this1 = load ptr, ptr %this.addr, align 8
  %range_ = getelementptr inbounds %"class.hermes::parser::Token", ptr %this1, i32 0, i32 2
  %Start = getelementptr inbounds %"class.llvh::SMRange", ptr %range_, i32 0, i32 0
  call void @llvm.memcpy.p0.p0.i64(ptr align 8 %retval, ptr align 8 %Start, i64 8, i1 false)
  %coerce.dive = getelementptr inbounds %"class.llvh::SMLoc", ptr %retval, i32 0, i32 0
  %0 = load ptr, ptr %coerce.dive, align 8
  ret ptr %0
}

; Function Attrs: mustprogress nounwind uwtable
define linkonce_odr hidden noundef zeroext i1 @_ZNK6hermes6parser7JSLexer27isNewLineBeforeCurrentTokenEv(ptr noundef nonnull align 8 dereferenceable(1128) %this) #0 comdat align 2 {
entry:
  %this.addr = alloca ptr, align 8
  store ptr %this, ptr %this.addr, align 8
  %this1 = load ptr, ptr %this.addr, align 8
  %newLineBeforeCurrentToken_ = getelementptr inbounds %"class.hermes::parser::JSLexer", ptr %this1, i32 0, i32 16
  %0 = load i8, ptr %newLineBeforeCurrentToken_, align 8
  %tobool = trunc i8 %0 to i1
  ret i1 %tobool
}

; Function Attrs: mustprogress nounwind uwtable
define linkonce_odr hidden { ptr, ptr } @_ZN6hermes6parser6detail12JSParserImpl7advanceENS0_7JSLexer14GrammarContextE(ptr noundef nonnull align 8 dereferenceable(2752) %this, i32 noundef %grammarContext) #0 comdat align 2 {
entry:
  %retval = alloca %"class.llvh::SMRange", align 8
  %this.addr = alloca ptr, align 8
  %grammarContext.addr = alloca i32, align 4
  store ptr %this, ptr %this.addr, align 8
  store i32 %grammarContext, ptr %grammarContext.addr, align 4
  %this1 = load ptr, ptr %this.addr, align 8
  %tok_ = getelementptr inbounds %"class.hermes::parser::detail::JSParserImpl", ptr %this1, i32 0, i32 3
  %0 = load ptr, ptr %tok_, align 8
  %call = call { ptr, ptr } @_ZNK6hermes6parser5Token14getSourceRangeEv(ptr noundef nonnull align 8 dereferenceable(65) %0)
  %1 = getelementptr inbounds { ptr, ptr }, ptr %retval, i32 0, i32 0
  %2 = extractvalue { ptr, ptr } %call, 0
  store ptr %2, ptr %1, align 8
  %3 = getelementptr inbounds { ptr, ptr }, ptr %retval, i32 0, i32 1
  %4 = extractvalue { ptr, ptr } %call, 1
  store ptr %4, ptr %3, align 8
  %lexer_ = getelementptr inbounds %"class.hermes::parser::detail::JSParserImpl", ptr %this1, i32 0, i32 2
  %5 = load i32, ptr %grammarContext.addr, align 4
  %call2 = call noundef ptr @_ZN6hermes6parser7JSLexer7advanceENS1_14GrammarContextE(ptr noundef nonnull align 8 dereferenceable(1128) %lexer_, i32 noundef %5)
  %tok_3 = getelementptr inbounds %"class.hermes::parser::detail::JSParserImpl", ptr %this1, i32 0, i32 3
  store ptr %call2, ptr %tok_3, align 8
  %6 = load { ptr, ptr }, ptr %retval, align 8
  ret { ptr, ptr } %6
}

; Function Attrs: mustprogress nounwind uwtable
define linkonce_odr hidden noundef i32 @_ZNK6hermes6parser5Token7getKindEv(ptr noundef nonnull align 8 dereferenceable(65) %this) #0 comdat align 2 {
entry:
  %this.addr = alloca ptr, align 8
  store ptr %this, ptr %this.addr, align 8
  %this1 = load ptr, ptr %this.addr, align 8
  %kind_ = getelementptr inbounds %"class.hermes::parser::Token", ptr %this1, i32 0, i32 0
  %0 = load i32, ptr %kind_, align 8
  ret i32 %0
}

; Function Attrs: mustprogress nounwind uwtable
define hidden noundef zeroext i1 @_ZN6hermes6parser6detail12JSParserImpl7eatSemiEb(ptr noundef nonnull align 8 dereferenceable(2752) %this, i1 noundef zeroext %optional) #0 align 2 {
entry:
  %retval = alloca i1, align 1
  %this.addr = alloca ptr, align 8
  %optional.addr = alloca i8, align 1
  %coerce = alloca %"class.llvh::SMRange", align 8
  %agg.tmp = alloca %"class.llvh::SMLoc", align 8
  %ref.tmp = alloca %"class.llvh::Twine", align 8
  store ptr %this, ptr %this.addr, align 8
  %frombool = zext i1 %optional to i8
  store i8 %frombool, ptr %optional.addr, align 1
  %this1 = load ptr, ptr %this.addr, align 8
  %tok_ = getelementptr inbounds %"class.hermes::parser::detail::JSParserImpl", ptr %this1, i32 0, i32 3
  %0 = load ptr, ptr %tok_, align 8
  %call = call noundef i32 @_ZNK6hermes6parser5Token7getKindEv(ptr noundef nonnull align 8 dereferenceable(65) %0)
  %cmp = icmp eq i32 %call, 60
  br i1 %cmp, label %if.then, label %if.end

if.then:                                          ; preds = %entry
  %call2 = call { ptr, ptr } @_ZN6hermes6parser6detail12JSParserImpl7advanceENS0_7JSLexer14GrammarContextE(ptr noundef nonnull align 8 dereferenceable(2752) %this1, i32 noundef 0)
  %1 = getelementptr inbounds { ptr, ptr }, ptr %coerce, i32 0, i32 0
  %2 = extractvalue { ptr, ptr } %call2, 0
  store ptr %2, ptr %1, align 8
  %3 = getelementptr inbounds { ptr, ptr }, ptr %coerce, i32 0, i32 1
  %4 = extractvalue { ptr, ptr } %call2, 1
  store ptr %4, ptr %3, align 8
  store i1 true, ptr %retval, align 1
  br label %return

if.end:                                           ; preds = %entry
  %tok_3 = getelementptr inbounds %"class.hermes::parser::detail::JSParserImpl", ptr %this1, i32 0, i32 3
  %5 = load ptr, ptr %tok_3, align 8
  %call4 = call noundef i32 @_ZNK6hermes6parser5Token7getKindEv(ptr noundef nonnull align 8 dereferenceable(65) %5)
  %cmp5 = icmp eq i32 %call4, 51
  br i1 %cmp5, label %if.then11, label %lor.lhs.false

lor.lhs.false:                                    ; preds = %if.end
  %tok_6 = getelementptr inbounds %"class.hermes::parser::detail::JSParserImpl", ptr %this1, i32 0, i32 3
  %6 = load ptr, ptr %tok_6, align 8
  %call7 = call noundef i32 @_ZNK6hermes6parser5Token7getKindEv(ptr noundef nonnull align 8 dereferenceable(65) %6)
  %cmp8 = icmp eq i32 %call7, 120
  br i1 %cmp8, label %if.then11, label %lor.lhs.false9

lor.lhs.false9:                                   ; preds = %lor.lhs.false
  %lexer_ = getelementptr inbounds %"class.hermes::parser::detail::JSParserImpl", ptr %this1, i32 0, i32 2
  %call10 = call noundef zeroext i1 @_ZNK6hermes6parser7JSLexer27isNewLineBeforeCurrentTokenEv(ptr noundef nonnull align 8 dereferenceable(1128) %lexer_)
  br i1 %call10, label %if.then11, label %if.end12

if.then11:                                        ; preds = %lor.lhs.false9, %lor.lhs.false, %if.end
  store i1 true, ptr %retval, align 1
  br label %return

if.end12:                                         ; preds = %lor.lhs.false9
  %7 = load i8, ptr %optional.addr, align 1
  %tobool = trunc i8 %7 to i1
  br i1 %tobool, label %if.end17, label %if.then13

if.then13:                                        ; preds = %if.end12
  %tok_14 = getelementptr inbounds %"class.hermes::parser::detail::JSParserImpl", ptr %this1, i32 0, i32 3
  %8 = load ptr, ptr %tok_14, align 8
  %call15 = call ptr @_ZNK6hermes6parser5Token11getStartLocEv(ptr noundef nonnull align 8 dereferenceable(65) %8)
  %coerce.dive = getelementptr inbounds %"class.llvh::SMLoc", ptr %agg.tmp, i32 0, i32 0
  store ptr %call15, ptr %coerce.dive, align 8
  call void @_ZN4llvh5TwineC2EPKc(ptr noundef nonnull align 8 dereferenceable(18) %ref.tmp, ptr noundef @.str.77)
  %coerce.dive16 = getelementptr inbounds %"class.llvh::SMLoc", ptr %agg.tmp, i32 0, i32 0
  %9 = load ptr, ptr %coerce.dive16, align 8
  call void @_ZN6hermes6parser6detail12JSParserImpl5errorEN4llvh5SMLocERKNS3_5TwineE(ptr noundef nonnull align 8 dereferenceable(2752) %this1, ptr %9, ptr noundef nonnull align 8 dereferenceable(18) %ref.tmp)
  br label %if.end17

if.end17:                                         ; preds = %if.then13, %if.end12
  store i1 false, ptr %retval, align 1
  br label %return

return:                                           ; preds = %if.end17, %if.then11, %if.then
  %10 = load i1, ptr %retval, align 1
  ret i1 %10
}