; Function Attrs: mustprogress nounwind uwtable
define hidden noundef zeroext i1 @_ZN6hermes6parser6detail12JSParserImpl7eatSemiEb(ptr noundef nonnull align 8 dereferenceable(2752) %this, i1 noundef zeroext %optional) local_unnamed_addr #0 align 2 {
entry:
  %ref.tmp = alloca %"class.llvh::Twine", align 8
  %tok_ = getelementptr inbounds i8, ptr %this, i64 1144
  %0 = load ptr, ptr %tok_, align 8
  %1 = load i32, ptr %0, align 8
  switch i32 %1, label %lor.lhs.false9 [
    i32 60, label %if.then
    i32 51, label %return
    i32 120, label %return
  ]

if.then:                                          ; preds = %entry
  %lexer_.i = getelementptr inbounds i8, ptr %this, i64 16
  %call2.i = tail call noundef ptr @_ZN6hermes6parser7JSLexer7advanceENS1_14GrammarContextE(ptr noundef nonnull align 8 dereferenceable(1128) %lexer_.i, i32 noundef 0) #16
  store ptr %call2.i, ptr %tok_, align 8
  br label %return

lor.lhs.false9:                                   ; preds = %entry
  %newLineBeforeCurrentToken_.i = getelementptr inbounds i8, ptr %this, i64 176
  %2 = load i8, ptr %newLineBeforeCurrentToken_.i, align 8
  %3 = and i8 %2, 1
  %tobool.i = icmp ne i8 %3, 0
  %brmerge = or i1 %tobool.i, %optional
  br i1 %brmerge, label %return, label %if.then13

if.then13:                                        ; preds = %lor.lhs.false9
  %range_.i = getelementptr inbounds i8, ptr %0, i64 8
  %retval.sroa.0.0.copyload.i = load ptr, ptr %range_.i, align 8
  %LHSKind.i = getelementptr inbounds i8, ptr %ref.tmp, i64 16
  %RHSKind.i = getelementptr inbounds i8, ptr %ref.tmp, i64 17
  store i8 1, ptr %RHSKind.i, align 1
  store ptr @.str.77, ptr %ref.tmp, align 8
  store i8 3, ptr %LHSKind.i, align 8
  %sm_.i = getelementptr inbounds i8, ptr %this, i64 8
  %4 = load ptr, ptr %sm_.i, align 8
  call void @_ZN6hermes18SourceErrorManager7messageENS0_8DiagKindEN4llvh5SMLocERKNS2_5TwineENS_9SubsystemE(ptr noundef nonnull align 8 dereferenceable(464) %4, i32 noundef 0, ptr %retval.sroa.0.0.copyload.i, ptr noundef nonnull align 8 dereferenceable(18) %ref.tmp, i32 noundef 2) #16
  br label %return

return:                                           ; preds = %entry, %entry, %lor.lhs.false9, %if.then13, %if.then
  %retval.0 = phi i1 [ true, %if.then ], [ %tobool.i, %lor.lhs.false9 ], [ false, %if.then13 ], [ true, %entry ], [ true, %entry ]
  ret i1 %retval.0
}